target datalayout = "e-m:e-p270:32:32-p271:32:32-p272:64:64-i64:64-i128:128-f80:128-n8:16:32:64-S128"
target triple = "x86_64-pc-linux-gnu"

; Function Attrs: nounwind uwtable
define ptr @Gia_SortGetTest(i32 noundef %0) #0 {
  %2 = alloca i32, align 4
  %3 = alloca i32, align 4
  %4 = alloca ptr, align 8
  store i32 %0, ptr %2, align 4, !tbaa !8
  call void @llvm.lifetime.start.p0(i64 4, ptr %3) #8
  call void @llvm.lifetime.start.p0(i64 8, ptr %4) #8
  call void @srand(i32 noundef 0) #8
  %5 = load i32, ptr %2, align 4, !tbaa !8
  %6 = sext i32 %5 to i64
  %7 = mul i64 4, %6
  %8 = call noalias ptr @malloc(i64 noundef %7) #9
  store ptr %8, ptr %4, align 8, !tbaa !3
  store i32 0, ptr %3, align 4, !tbaa !8
  br label %9

9:                                                ; preds = %19, %1
  %10 = load i32, ptr %3, align 4, !tbaa !8
  %11 = load i32, ptr %2, align 4, !tbaa !8
  %12 = icmp slt i32 %10, %11
  br i1 %12, label %13, label %22

13:                                               ; preds = %9
  %14 = call i32 @rand() #8
  %15 = load ptr, ptr %4, align 8, !tbaa !3
  %16 = load i32, ptr %3, align 4, !tbaa !8
  %17 = sext i32 %16 to i64
  %18 = getelementptr inbounds i32, ptr %15, i64 %17
  store i32 %14, ptr %18, align 4, !tbaa !8
  br label %19

19:                                               ; preds = %13
  %20 = load i32, ptr %3, align 4, !tbaa !8
  %21 = add nsw i32 %20, 1
  store i32 %21, ptr %3, align 4, !tbaa !8
  br label %9, !llvm.loop !16

22:                                               ; preds = %9
  %23 = load ptr, ptr %4, align 8, !tbaa !3
  call void @llvm.lifetime.end.p0(i64 8, ptr %4) #8
  call void @llvm.lifetime.end.p0(i64 4, ptr %3) #8
  ret ptr %23
}