; Function Attrs: nounwind uwtable
define noalias noundef ptr @Gia_SortGetTest(i32 noundef %0) local_unnamed_addr #0 {
  tail call void @srand(i32 noundef 0) #16
  %2 = sext i32 %0 to i64
  %3 = shl nsw i64 %2, 2
  %4 = tail call noalias ptr @malloc(i64 noundef %3) #17
  %5 = icmp sgt i32 %0, 0
  br i1 %5, label %.lr.ph.preheader, label %._crit_edge

.lr.ph.preheader:                                 ; preds = %1
  %wide.trip.count = zext nneg i32 %0 to i64
  br label %.lr.ph

.lr.ph:                                           ; preds = %.lr.ph.preheader, %.lr.ph
  %indvars.iv = phi i64 [ 0, %.lr.ph.preheader ], [ %indvars.iv.next, %.lr.ph ]
  %6 = tail call i32 @rand() #16
  %7 = getelementptr inbounds nuw i32, ptr %4, i64 %indvars.iv
  store i32 %6, ptr %7, align 4, !tbaa !5
  %indvars.iv.next = add nuw nsw i64 %indvars.iv, 1
  %exitcond.not = icmp eq i64 %indvars.iv.next, %wide.trip.count
  br i1 %exitcond.not, label %._crit_edge, label %.lr.ph, !llvm.loop !16

._crit_edge:                                      ; preds = %.lr.ph, %1
  ret ptr %4
}